(dp0
I0
ccopy_reg
_reconstructor
p1
(cobjects.room
Room
p2
c__builtin__
object
p3
Ntp4
Rp5
(dp6
S'exits'
p7
(lp8
g1
(cobjects.exit
Exit
p9
g3
Ntp10
Rp11
(dp12
S'container'
p13
I00
sS'description'
p14
S''
p15
sS'equippable'
p16
I00
sS'conceal'
p17
I00
sS'location'
p18
I0
sS'name'
p19
S'book'
p20
sS'concealed'
p21
I00
sS'moveable'
p22
I00
sS'end'
p23
I1
sS'consumable'
p24
I00
sS'takeable'
p25
I00
sS'dir'
p26
S'down'
p27
sS'aliases'
p28
(lp29
S'hyperion'
p30
aS'inside'
p31
asbag1
(g9
g3
Ntp32
Rp33
(dp34
g13
I00
sg14
g15
sg16
I00
sg17
I00
sg18
I1
sg19
S'outside'
p35
sg21
I00
sg22
I00
sg23
I0
sg24
I00
sg25
I00
sg26
S'out'
p36
sg28
(lp37
sbasg13
I01
sg14
S'carpeted floors and whitewashed walls make for a boring, albeit cluttered room. On the south wall is a bed, and at the foot of the bed lies a book. The book is titled "Hyperion."'
p38
sg16
I00
sg17
I00
sS'items'
p39
(lp40
g1
(cobjects.fix
Fixture
p41
g3
Ntp42
Rp43
(dp44
g13
I00
sg14
S"it's a boring bed."
p45
sg16
I00
sg17
I00
sg18
I0
sg19
S'bed'
p46
sg21
I00
sg22
I00
sg24
I00
sg25
I00
sg28
(lp47
sbag1
(cobjects.take
Takeable
p48
g3
Ntp49
Rp50
(dp51
g13
I00
sg14
S'On the front cover is a one word. HYPERION. Cover art shows a depiction of a humanoid figure in black and chrome, covered in spikes, looking down on a prairie, while a small ship approaches.'
p52
sg16
I00
sg17
I00
sg18
I0
sg19
S'book'
p53
sg21
I00
sg22
I00
sg24
I00
sg25
I01
sg28
(lp54
sbasg18
g5
sg19
S'bedroom'
p55
sg21
I00
sg22
I00
sS'id'
p56
I0
sS'locked'
p57
I00
sg24
I00
sg25
I00
sg28
(lp58
sbsI1
g1
(g2
g3
Ntp59
Rp60
(dp61
g7
g8
sg13
I01
sg14
S'you are looking out on a sunset on an alien world. you are the shrike. some pilgrims approach to your west.'
p62
sg16
I00
sg17
I00
sg39
(lp63
g1
(g48
g3
Ntp64
Rp65
(dp66
g13
I00
sg14
S'just some rocks'
p67
sg16
I00
sg17
I00
sg18
I1
sg19
S'rocks'
p68
sg21
I00
sg22
I00
sg24
I00
sg25
I01
sg28
(lp69
sbasg18
g60
sg19
S'hyperion'
p70
sg21
I00
sg22
I00
sg56
I1
sg57
I00
sg24
I00
sg25
I00
sg28
g58
sbs.