(dp0
I0
ccopy_reg
_reconstructor
p1
(cobjects.room
Room
p2
c__builtin__
object
p3
Ntp4
Rp5
(dp6
S'exits'
p7
(lp8
g1
(cobjects.exit
Exit
p9
g3
Ntp10
Rp11
(dp12
S'container'
p13
I00
sS'description'
p14
S''
p15
sS'equippable'
p16
I00
sS'conceal'
p17
I00
sS'location'
p18
I0
sS'name'
p19
g15
sS'concealed'
p20
I00
sS'moveable'
p21
I00
sS'end'
p22
I0
sS'consumable'
p23
I00
sS'takeable'
p24
I00
sS'dir'
p25
g15
sS'aliases'
p26
(lp27
sbag1
(g9
g3
Ntp28
Rp29
(dp30
g13
I00
sg14
g15
sg16
I00
sg17
I00
sg18
I0
sg19
g15
sg20
I00
sg21
I00
sg22
I0
sg23
I00
sg24
I00
sg25
g15
sg26
(lp31
sbasg13
I01
sg14
g15
sg16
I00
sg17
I00
sS'items'
p32
(lp33
g1
(cobjects.fix
Fixture
p34
g3
Ntp35
Rp36
(dp37
g13
I00
sg14
g15
sg16
I00
sg17
I00
sg18
I0
sg19
g15
sg20
I00
sg21
I00
sg23
I00
sg24
I00
sg26
(lp38
sbasg18
g5
sg19
S'bedroom'
p39
sg20
I00
sg21
I00
sS'id'
p40
I0
sS'locked'
p41
I00
sg23
I00
sg24
I00
sg26
(lp42
sbs.