(dp0
I0
ccopy_reg
_reconstructor
p1
(cchimai.chimai.objects.room
Room
p2
c__builtin__
object
p3
Ntp4
Rp5
(dp6
S'exits'
p7
(lp8
g1
(cchimai.chimai.objects.exit
Exit
p9
g3
Ntp10
Rp11
(dp12
S'container'
p13
I00
sS'description'
p14
S''
p15
sS'equippable'
p16
I00
sS'conceal'
p17
I00
sS'location'
p18
I0
sS'name'
p19
S'Side Exit'
p20
sS'concealed'
p21
I00
sS'moveable'
p22
I00
sS'end'
p23
S'where you began'
p24
sS'consumable'
p25
I00
sS'takeable'
p26
I00
sS'dir'
p27
S'east'
p28
sS'aliases'
p29
(lp30
S'side'
p31
asbag1
(g9
g3
Ntp32
Rp33
(dp34
g13
I00
sg14
g15
sg16
I00
sg17
I00
sg18
I1
sg19
S'side entrance'
p35
sg21
I00
sg22
I00
sg23
g24
sg25
I00
sg26
I00
sg27
S'west'
p36
sg29
(lp37
S'side'
p38
aS'door'
p39
asbag1
(g9
g3
Ntp40
Rp41
(dp42
g13
I00
sg14
g15
sg16
I00
sg17
I00
sg18
I0
sg19
S'front exit'
p43
sg21
I00
sg22
I00
sg23
g24
sg25
I00
sg26
I00
sg27
S'south'
p44
sg29
(lp45
S'front'
p46
aS'door'
p47
aS'exit'
p48
asbag1
(g9
g3
Ntp49
Rp50
(dp51
g13
I00
sg14
g15
sg16
I00
sg17
I00
sg18
I2
sg19
S'front entrance'
p52
sg21
I00
sg22
I00
sg23
g24
sg25
I00
sg26
I00
sg27
S'north'
p53
sg29
(lp54
S'front'
p55
asbag1
(g9
g3
Ntp56
Rp57
(dp58
g13
I00
sg14
g15
sg16
I00
sg17
I00
sg18
I0
sg19
S'main room'
p59
sg21
I00
sg22
I00
sg23
g24
sg25
I00
sg26
I00
sg27
S'north'
p60
sg29
(lp61
S'main'
p62
aS'stairs'
p63
aS'staircase'
p64
asbag1
(g9
g3
Ntp65
Rp66
(dp67
g13
I00
sg14
g15
sg16
I00
sg17
I00
sg18
I3
sg19
S'front room'
p68
sg21
I00
sg22
I00
sg23
g24
sg25
I00
sg26
I00
sg27
S'south'
p69
sg29
(lp70
S'front'
p71
aS'upstairs'
p72
aS'stairs'
p73
asbag1
(g9
g3
Ntp74
Rp75
(dp76
g13
I00
sg14
g15
sg16
I00
sg17
I00
sg18
I1
sg19
S'street'
p77
sg21
I00
sg22
I00
sg23
g24
sg25
I00
sg26
I00
sg27
S'south'
p78
sg29
(lp79
S'sidewalk'
p80
asbag1
(g9
g3
Ntp81
Rp82
(dp83
g13
I00
sg14
g15
sg16
I00
sg17
I00
sg18
I2
sg19
S'alley'
p84
sg21
I00
sg22
I00
sg23
g24
sg25
I00
sg26
I00
sg27
S'north'
p85
sg29
(lp86
sbasg13
I01
sg14
S'You are in the anteroom of an ornate library. To your immediate left is a small couch, to your right a desk. To the north, a staircase leads down into a large, open room, with what looks like thousands of books lining the walls. To the east, there is what appears to be a side exit. To the south lies the main exit that leads out to the street.'
p87
sg16
I00
sg17
I00
sS'items'
p88
(lp89
g1
(cchimai.chimai.objects.take
Takeable
p90
g3
Ntp91
Rp92
(dp93
g13
I00
sg14
S"It's a miniature black flashlight."
p94
sg16
I00
sg17
I00
sg18
I0
sg19
S'Flashlight'
p95
sg21
I00
sg22
I00
sg25
I00
sg26
I01
sg29
(lp96
S'light'
p97
aS'flash'
p98
asbag1
(g90
g3
Ntp99
Rp100
(dp101
g13
I00
sg14
S'Upon closer inspection, the pen is actually a small penknife. Pulling off the pen top reveals a fine, thin, metal blade.'
p102
sg16
I00
sg17
I00
sg18
I0
sg19
S'Penknife'
p103
sg21
I00
sg22
I00
sg25
I00
sg26
I01
sg29
(lp104
S'pen'
p105
aS'knife'
p106
asbag1
(g90
g3
Ntp107
Rp108
(dp109
g13
I00
sg14
S"It's a black dress shoe."
p110
sg16
I00
sg17
I00
sg18
I0
sg19
S'Shoe'
p111
sg21
I00
sg22
I00
sg25
I00
sg26
I01
sg29
(lp112
sbag1
(cchimai.chimai.objects.move
Moveable
p113
g3
Ntp114
Rp115
(dp116
g13
I00
sg14
S"It's a small, stuffy-looking couch. Underneath it, you notice a pen, a keychain flashlight, and ... someone's left shoe."
p117
sg16
I00
sg17
I00
sg18
I0
sg19
S'Couch'
p118
sg21
I00
sg22
I01
sg25
I00
sg26
I00
sg29
(lp119
sbag1
(cchimai.chimai.objects.fix
Fixture
p120
g3
Ntp121
Rp122
(dp123
g13
I00
sg14
S'The front desk has a sign that reads "Closed". Some papers litter the floor behind the desk.'
p124
sg16
I00
sg17
I00
sg18
I0
sg19
S'Front Desk'
p125
sg21
I00
sg22
I00
sg25
I00
sg26
I00
sg29
(lp126
S'desk'
p127
asbag1
(g90
g3
Ntp128
Rp129
(dp130
g13
I00
sg14
S'What a mess. There are a lot of different things here. Upon a cursory glance, you see what looks like practice questions for an acturial test, an essay entitled "Does Justice Have Good Consequences?", and some mail.'
p131
sg16
I00
sg17
I00
sg18
I0
sg19
S'Papers'
p132
sg21
I00
sg22
I00
sg25
I00
sg26
I01
sg29
(lp133
S'paper'
p134
asbasg18
g5
sg19
S'Library'
p135
sg21
I00
sg22
I00
sS'id'
p136
I0
sS'locked'
p137
I00
sg25
I00
sg26
I00
sg29
(lp138
sbsI1
g1
(g2
g3
Ntp139
Rp140
(dp141
g7
g8
sg13
I01
sg14
S"You are in an alley, standing between one large building to the west and another smaller one to the east. There is a small gated area at the end of the alley, and what looks like the entrance to a crawlspace behind the gate. The gate's lock doesn't look terribly secure."
p142
sg16
I00
sg17
I00
sg88
(lp143
g1
(g90
g3
Ntp144
Rp145
(dp146
g13
I00
sg14
S"It's just a torn up newspaper."
p147
sg16
I00
sg17
I00
sg18
I1
sg19
S'newspaper'
p148
sg21
I00
sg22
I00
sg25
I00
sg26
I01
sg29
(lp149
sbag1
(g90
g3
Ntp150
Rp151
(dp152
g13
I00
sg14
S"It's a chipped brick."
p153
sg16
I00
sg17
I00
sg18
I1
sg19
S'brick'
p154
sg21
I00
sg22
I00
sg25
I00
sg26
I01
sg29
(lp155
sbasg18
g140
sg19
S'Alley'
p156
sg21
I00
sg22
I00
sg136
I1
sg137
I00
sg25
I00
sg26
I00
sg29
g138
sbsI2
g1
(g2
g3
Ntp157
Rp158
(dp159
g7
g8
sg13
I01
sg14
S'You are on a paved street, on the south sidewalk. There are a few parked cars near you. Across the street is a grand building, with a sign out front reading, "George S. Haywood Library". To the east, you see the opening to an alley.'
p160
sg16
I00
sg17
I00
sg88
(lp161
g1
(g90
g3
Ntp162
Rp163
(dp164
g13
I00
sg14
S'A small poster for a Chopin concert. The concert was yesterday.'
p165
sg16
I00
sg17
I00
sg18
I2
sg19
S'Concert Leaflet'
p166
sg21
I00
sg22
I00
sg25
I00
sg26
I01
sg29
(lp167
S'leaflet'
p168
asbag1
(g90
g3
Ntp169
Rp170
(dp171
g13
I00
sg14
S'A simple empty bottle. You could fill it up with something.'
p172
sg16
I00
sg17
I00
sg18
I2
sg19
S'Empty Bottle'
p173
sg21
I00
sg22
I00
sg25
I00
sg26
I01
sg29
(lp174
S'bottle'
p175
asbasg18
g158
sg19
S'Street'
p176
sg21
I00
sg22
I00
sg136
I2
sg137
I00
sg25
I00
sg26
I00
sg29
g138
sbsI3
g1
(g2
g3
Ntp177
Rp178
(dp179
g7
g8
sg13
I01
sg14
S'You are in a wide open room with a high ceiling. Shelves with books lines the walls, with beautiful landscapes higher up. In the center of the room is a single table, with a clay object in the middle. To the south is the front room.'
p180
sg16
I00
sg17
I00
sg88
(lp181
g1
(g113
g3
Ntp182
Rp183
(dp184
g13
I00
sg14
S"In the center of a dark, stained round table is a circular, clay object. Grooves ring the object, and it's clear that it's well made. A thin film of dust rests on the object and the whole table."
p185
sg16
I00
sg17
I00
sg18
I3
sg19
S'Book'
p186
sg21
I00
sg22
I01
sg25
I00
sg26
I00
sg29
(lp187
S'clay'
p188
aS'object'
p189
aS'clay object'
p190
asbag1
(g90
g3
Ntp191
Rp192
(dp193
g13
I00
sg14
S'A long, thin, cast-iron key. '
p194
sg16
I00
sg17
I00
sg18
I3
sg19
S'key'
p195
sg21
I00
sg22
I00
sg25
I00
sg26
I01
sg29
(lp196
S'cast-iron'
p197
asbasg18
g178
sg19
S'Library, Main Room'
p198
sg21
I00
sg22
I00
sg136
I3
sg137
I00
sg25
I00
sg26
I00
sg29
g138
sbs.